(lp0
S'poi'
p1
aS'salary'
p2
aS'total_payments'
p3
aS'bonus'
p4
aS'deferred_income'
p5
aS'total_stock_value'
p6
aS'expenses'
p7
aS'exercised_stock_options'
p8
aS'other'
p9
aS'restricted_stock'
p10
aS'to_messages'
p11
aS'from_messages'
p12
aS'shared_receipt_with_poi'
p13
aS'multiplied_stock'
p14
aS'exercised_stock_sq'
p15
aS'to_emails_poi_ratio'
p16
a.