(lp0
S'poi'
p1
aS'salary'
p2
aS'bonus'
p3
aS'restricted_stock'
p4
aS'total_stock_value'
p5
aS'shared_receipt_with_poi'
p6
aS'exercised_stock_options'
p7
aS'to_messages'
p8
aS'from_messages'
p9
aS'director_fees'
p10
aS'expenses'
p11
aS'other'
p12
aS'total_payments'
p13
aS'deferral_payments'
p14
aS'long_term_incentive'
p15
aS'from_this_person_to_poi'
p16
aS'from_poi_to_this_person'
p17
aS'deferred_income'
p18
aS'from_emails_poi_ratio'
p19
aS'to_emails_poi_ratio'
p20
a.